; Function Attrs: mustprogress uwtable
define dso_local void @_ZN3net21QuicSentPacketManager17SetNumOpenStreamsEm(ptr nocapture noundef nonnull readonly align 8 dereferenceable(776) %this, i64 noundef %num_streams) unnamed_addr #0 align 2 {
entry:
  %n_connection_simulation_ = getelementptr inbounds i8, ptr %this, i64 536
  %0 = load i8, ptr %n_connection_simulation_, align 8
  %1 = and i8 %0, 1
  %tobool.not = icmp eq i8 %1, 0
  br i1 %tobool.not, label %if.end, label %if.then

if.then:                                          ; preds = %entry
  %send_algorithm_ = getelementptr inbounds i8, ptr %this, i64 488
  %2 = load ptr, ptr %send_algorithm_, align 8
  %.sroa.speculated4 = tail call i64 @llvm.umax.i64(i64 %num_streams, i64 1)
  %.sroa.speculated = tail call i64 @llvm.umin.i64(i64 %.sroa.speculated4, i64 5)
  %conv = trunc i64 %.sroa.speculated to i32
  %vtable = load ptr, ptr %2, align 8
  %vfn = getelementptr inbounds i8, ptr %vtable, i64 24
  %3 = load ptr, ptr %vfn, align 8
  tail call void %3(ptr noundef nonnull align 8 dereferenceable(8) %2, i32 noundef %conv)
  br label %if.end

if.end:                                           ; preds = %if.then, %entry
  ret void
}